; Function Attrs: nounwind uwtable
define ptr @l_Lean_Server_Snapshots_Snapshot_runCoreM___rarg___boxed(ptr noundef %0, ptr noundef %1, ptr noundef %2, ptr noundef %3) #0 {
  tail call void @lean_inc_heartbeat() #3
  %5 = tail call noalias ptr @mi_malloc_small(i64 noundef 32) #3
  %6 = icmp eq ptr %5, null
  br i1 %6, label %7, label %l_Lean_Server_Snapshots_Snapshot_runCoreM___rarg.exit

7:                                                ; preds = %4
  tail call void @lean_internal_panic_out_of_memory() #4
  unreachable

l_Lean_Server_Snapshots_Snapshot_runCoreM___rarg.exit: ; preds = %4
  %8 = getelementptr inbounds nuw i8, ptr %5, i64 4
  store i32 1, ptr %5, align 4, !tbaa !8
  store i32 -184549344, ptr %8, align 4
  %9 = getelementptr inbounds nuw i8, ptr %5, i64 8
  store ptr @l_Lean_Elab_Command_liftCoreM___rarg___boxed, ptr %9, align 8, !tbaa !4
  %10 = getelementptr inbounds nuw i8, ptr %5, i64 16
  store i16 4, ptr %10, align 8, !tbaa !14
  %11 = getelementptr inbounds nuw i8, ptr %5, i64 18
  store i16 1, ptr %11, align 2, !tbaa !14
  %12 = getelementptr inbounds nuw i8, ptr %5, i64 24
  store ptr %2, ptr %12, align 8, !tbaa !4
  %13 = tail call ptr @l_Lean_Server_Snapshots_Snapshot_runCommandElabM___rarg(ptr noundef %0, ptr noundef readonly %1, ptr noundef nonnull %5, ptr noundef %3)
  %14 = ptrtoint ptr %1 to i64
  %15 = and i64 %14, 1
  %.not = icmp eq i64 %15, 0
  br i1 %.not, label %16, label %lean_dec.exit

16:                                               ; preds = %l_Lean_Server_Snapshots_Snapshot_runCoreM___rarg.exit
  %17 = load i32, ptr %1, align 4, !tbaa !8
  %18 = icmp sgt i32 %17, 1
  br i1 %18, label %19, label %21, !prof !11

19:                                               ; preds = %16
  %20 = add nsw i32 %17, -1
  store i32 %20, ptr %1, align 4, !tbaa !8
  br label %lean_dec.exit

21:                                               ; preds = %16
  %.not.i = icmp eq i32 %17, 0
  br i1 %.not.i, label %lean_dec.exit, label %22

22:                                               ; preds = %21
  tail call void @lean_dec_ref_cold(ptr noundef nonnull %1) #3
  br label %lean_dec.exit

lean_dec.exit:                                    ; preds = %22, %21, %19, %l_Lean_Server_Snapshots_Snapshot_runCoreM___rarg.exit
  ret ptr %13
}